target datalayout = "e-m:e-p270:32:32-p271:32:32-p272:64:64-i64:64-i128:128-f80:128-n8:16:32:64-S128"
target triple = "x86_64-unknown-linux-gnu"

%struct.RSA_additional_prime_st = type { ptr, ptr, ptr, ptr, ptr }

; Function Attrs: nounwind uwtable
define hidden void @RSA_additional_prime_free(ptr noundef %ap) #0 {
entry:
  %ap.addr = alloca ptr, align 8
  store ptr %ap, ptr %ap.addr, align 8
  %0 = load ptr, ptr %ap.addr, align 8
  %cmp = icmp eq ptr %0, null
  br i1 %cmp, label %if.then, label %if.end

if.then:                                          ; preds = %entry
  br label %return

if.end:                                           ; preds = %entry
  %1 = load ptr, ptr %ap.addr, align 8
  %prime = getelementptr inbounds %struct.RSA_additional_prime_st, ptr %1, i32 0, i32 0
  %2 = load ptr, ptr %prime, align 8
  call void @BN_clear_free(ptr noundef %2)
  %3 = load ptr, ptr %ap.addr, align 8
  %exp = getelementptr inbounds %struct.RSA_additional_prime_st, ptr %3, i32 0, i32 1
  %4 = load ptr, ptr %exp, align 8
  call void @BN_clear_free(ptr noundef %4)
  %5 = load ptr, ptr %ap.addr, align 8
  %coeff = getelementptr inbounds %struct.RSA_additional_prime_st, ptr %5, i32 0, i32 2
  %6 = load ptr, ptr %coeff, align 8
  call void @BN_clear_free(ptr noundef %6)
  %7 = load ptr, ptr %ap.addr, align 8
  %r = getelementptr inbounds %struct.RSA_additional_prime_st, ptr %7, i32 0, i32 3
  %8 = load ptr, ptr %r, align 8
  call void @BN_clear_free(ptr noundef %8)
  %9 = load ptr, ptr %ap.addr, align 8
  %mont = getelementptr inbounds %struct.RSA_additional_prime_st, ptr %9, i32 0, i32 4
  %10 = load ptr, ptr %mont, align 8
  call void @BN_MONT_CTX_free(ptr noundef %10)
  %11 = load ptr, ptr %ap.addr, align 8
  call void @free(ptr noundef %11) #8
  br label %return

return:                                           ; preds = %if.end, %if.then
  ret void
}