; Function Attrs: nounwind uwtable
define hidden void @RSA_additional_prime_free(ptr noundef %ap) #0 {
entry:
  %cmp = icmp eq ptr %ap, null
  br i1 %cmp, label %return, label %if.end

if.end:                                           ; preds = %entry
  %0 = load ptr, ptr %ap, align 8
  tail call void @BN_clear_free(ptr noundef %0) #9
  %exp = getelementptr inbounds nuw i8, ptr %ap, i64 8
  %1 = load ptr, ptr %exp, align 8
  tail call void @BN_clear_free(ptr noundef %1) #9
  %coeff = getelementptr inbounds nuw i8, ptr %ap, i64 16
  %2 = load ptr, ptr %coeff, align 8
  tail call void @BN_clear_free(ptr noundef %2) #9
  %r = getelementptr inbounds nuw i8, ptr %ap, i64 24
  %3 = load ptr, ptr %r, align 8
  tail call void @BN_clear_free(ptr noundef %3) #9
  %mont = getelementptr inbounds nuw i8, ptr %ap, i64 32
  %4 = load ptr, ptr %mont, align 8
  tail call void @BN_MONT_CTX_free(ptr noundef %4) #9
  tail call void @free(ptr noundef nonnull %ap) #9
  br label %return

return:                                           ; preds = %entry, %if.end
  ret void
}